; Function Attrs: mustprogress nofree norecurse nosync nounwind willreturn memory(write, argmem: readwrite, inaccessiblemem: none) uwtable
define void @PaUtil_Set2ndInputChannel(ptr nocapture noundef readonly %0, i32 noundef %1, ptr noundef %2, i32 noundef %3) local_unnamed_addr #2 {
  %5 = getelementptr inbounds i8, ptr %0, i64 216
  %6 = load ptr, ptr %5, align 8
  %7 = zext i32 %1 to i64
  %8 = getelementptr inbounds %struct.PaUtilChannelDescriptor, ptr %6, i64 %7
  store ptr %2, ptr %8, align 8
  %9 = load ptr, ptr %5, align 8
  %10 = getelementptr inbounds %struct.PaUtilChannelDescriptor, ptr %9, i64 %7, i32 1
  store i32 %3, ptr %10, align 8
  ret void
}